; Function Attrs: nounwind uwtable
define void @Dch_ComputeEquivalences2(ptr noundef %0, ptr noundef readonly captures(none) %1) local_unnamed_addr #1 {
  %3 = tail call ptr @Gia_ManFromAigSimple(ptr noundef %0) #20
  %4 = getelementptr inbounds nuw i8, ptr %1, i64 4
  %5 = load i32, ptr %4, align 4
  %6 = getelementptr inbounds nuw i8, ptr %1, i64 52
  %7 = load i32, ptr %6, align 4
  %8 = tail call ptr @Cec4_ManSimulateTest3(ptr noundef %3, i32 noundef %5, i32 noundef %7) #20
  %9 = getelementptr inbounds nuw i8, ptr %0, i64 256
  %10 = load ptr, ptr %9, align 8
  %.not = icmp eq ptr %10, null
  br i1 %.not, label %12, label %11

11:                                               ; preds = %2
  tail call void @free(ptr noundef nonnull %10) #20
  store ptr null, ptr %9, align 8
  br label %12

12:                                               ; preds = %2, %11
  %13 = getelementptr i8, ptr %0, i64 32
  %.val = load ptr, ptr %13, align 8
  %14 = getelementptr i8, ptr %.val, i64 4
  %.val.val = load i32, ptr %14, align 4
  %15 = sext i32 %.val.val to i64
  %16 = tail call noalias ptr @calloc(i64 noundef %15, i64 noundef 8) #23
  store ptr %16, ptr %9, align 8
  %17 = getelementptr i8, ptr %3, i64 24
  %.val2735 = load i32, ptr %17, align 8
  %18 = icmp sgt i32 %.val2735, 1
  br i1 %18, label %.lr.ph37, label %._crit_edge

.lr.ph37:                                         ; preds = %12
  %19 = getelementptr i8, ptr %3, i64 192
  %20 = getelementptr i8, ptr %3, i64 200
  br label %21

21:                                               ; preds = %.lr.ph37, %Gia_ObjIsHead.exit.thread
  %.val2739 = phi i32 [ %.val2735, %.lr.ph37 ], [ %.val27, %Gia_ObjIsHead.exit.thread ]
  %indvars.iv = phi i64 [ 1, %.lr.ph37 ], [ %indvars.iv.next, %Gia_ObjIsHead.exit.thread ]
  %.val.i = load ptr, ptr %19, align 8
  %22 = getelementptr inbounds nuw %struct.Gia_Rpr_t_, ptr %.val.i, i64 %indvars.iv
  %23 = load i32, ptr %22, align 4
  %24 = and i32 %23, 268435455
  %25 = icmp eq i32 %24, 268435455
  br i1 %25, label %Gia_ObjIsHead.exit, label %Gia_ObjIsHead.exit.thread

Gia_ObjIsHead.exit:                               ; preds = %21
  %.val3.i = load ptr, ptr %20, align 8
  %26 = getelementptr inbounds nuw i32, ptr %.val3.i, i64 %indvars.iv
  %27 = load i32, ptr %26, align 4
  %28 = icmp slt i32 %27, 1
  br i1 %28, label %Gia_ObjIsHead.exit.thread, label %.lr.ph

.lr.ph:                                           ; preds = %Gia_ObjIsHead.exit, %Aig_ManObj.exit
  %.034 = phi i32 [ %.0, %Aig_ManObj.exit ], [ %27, %Gia_ObjIsHead.exit ]
  %.val30 = load ptr, ptr %13, align 8
  %.not.i = icmp eq ptr %.val30, null
  br i1 %.not.i, label %Aig_ManObj.exit, label %29

29:                                               ; preds = %.lr.ph
  %30 = getelementptr i8, ptr %.val30, i64 8
  %.val.i31 = load ptr, ptr %30, align 8
  %31 = getelementptr inbounds nuw ptr, ptr %.val.i31, i64 %indvars.iv
  %32 = load ptr, ptr %31, align 8
  br label %Aig_ManObj.exit

Aig_ManObj.exit:                                  ; preds = %.lr.ph, %29
  %33 = phi ptr [ %32, %29 ], [ null, %.lr.ph ]
  %34 = load ptr, ptr %9, align 8
  %35 = zext nneg i32 %.034 to i64
  %36 = getelementptr inbounds nuw ptr, ptr %34, i64 %35
  store ptr %33, ptr %36, align 8
  %.val29 = load ptr, ptr %20, align 8
  %37 = getelementptr inbounds nuw i32, ptr %.val29, i64 %35
  %.0 = load i32, ptr %37, align 4
  %38 = icmp sgt i32 %.0, 0
  br i1 %38, label %.lr.ph, label %Gia_ObjIsHead.exit.thread.loopexit, !llvm.loop !18

Gia_ObjIsHead.exit.thread.loopexit:               ; preds = %Aig_ManObj.exit
  %.val27.pre = load i32, ptr %17, align 8
  br label %Gia_ObjIsHead.exit.thread

Gia_ObjIsHead.exit.thread:                        ; preds = %Gia_ObjIsHead.exit.thread.loopexit, %21, %Gia_ObjIsHead.exit
  %.val27 = phi i32 [ %.val27.pre, %Gia_ObjIsHead.exit.thread.loopexit ], [ %.val2739, %21 ], [ %.val2739, %Gia_ObjIsHead.exit ]
  %indvars.iv.next = add nuw nsw i64 %indvars.iv, 1
  %39 = sext i32 %.val27 to i64
  %40 = icmp slt i64 %indvars.iv.next, %39
  br i1 %40, label %21, label %._crit_edge, !llvm.loop !19

._crit_edge:                                      ; preds = %Gia_ObjIsHead.exit.thread, %12
  tail call void @Gia_ManStop(ptr noundef nonnull %3) #20
  tail call void @Gia_ManStop(ptr noundef %8) #20
  ret void
}